target datalayout = "e-m:e-p270:32:32-p271:32:32-p272:64:64-i64:64-i128:128-f80:128-n8:16:32:64-S128"
target triple = "x86_64-pc-linux-gnu"

%struct.lean_object = type { i32, i32 }
%struct.lean_ctor_object = type { %struct.lean_object, [0 x ptr] }

; Function Attrs: inlinehint nounwind uwtable
define internal ptr @lean_to_ctor(ptr noundef %0) #0 {
  %2 = alloca ptr, align 8
  store ptr %0, ptr %2, align 8, !tbaa !15
  %3 = load ptr, ptr %2, align 8, !tbaa !15
  ret ptr %3
}

; Function Attrs: inlinehint nounwind uwtable
define internal ptr @lean_ctor_obj_cptr(ptr noundef %0) #0 {
  %2 = alloca ptr, align 8
  store ptr %0, ptr %2, align 8, !tbaa !15
  %3 = load ptr, ptr %2, align 8, !tbaa !15
  %4 = call ptr @lean_to_ctor(ptr noundef %3)
  %5 = getelementptr inbounds nuw %struct.lean_ctor_object, ptr %4, i32 0, i32 1
  %6 = getelementptr inbounds [0 x ptr], ptr %5, i64 0, i64 0
  ret ptr %6
}

; Function Attrs: alwaysinline nounwind uwtable
define internal void @lean_dec_ref(ptr noundef %0) #3 {
  %2 = alloca ptr, align 8
  store ptr %0, ptr %2, align 8, !tbaa !15
  %3 = load ptr, ptr %2, align 8, !tbaa !15
  %4 = getelementptr inbounds nuw %struct.lean_object, ptr %3, i32 0, i32 0
  %5 = load i32, ptr %4, align 4, !tbaa !21
  %6 = icmp sgt i32 %5, 1
  %7 = zext i1 %6 to i32
  %8 = sext i32 %7 to i64
  %9 = call i64 @llvm.expect.i64(i64 %8, i64 1)
  %10 = icmp ne i64 %9, 0
  br i1 %10, label %11, label %16

11:                                               ; preds = %1
  %12 = load ptr, ptr %2, align 8, !tbaa !15
  %13 = getelementptr inbounds nuw %struct.lean_object, ptr %12, i32 0, i32 0
  %14 = load i32, ptr %13, align 4, !tbaa !21
  %15 = add i32 %14, -1
  store i32 %15, ptr %13, align 4, !tbaa !21
  br label %24

16:                                               ; preds = %1
  %17 = load ptr, ptr %2, align 8, !tbaa !15
  %18 = getelementptr inbounds nuw %struct.lean_object, ptr %17, i32 0, i32 0
  %19 = load i32, ptr %18, align 4, !tbaa !21
  %20 = icmp ne i32 %19, 0
  br i1 %20, label %21, label %23

21:                                               ; preds = %16
  %22 = load ptr, ptr %2, align 8, !tbaa !15
  call void @lean_dec_ref_cold(ptr noundef %22)
  br label %23

23:                                               ; preds = %21, %16
  br label %24

24:                                               ; preds = %23, %11
  ret void
}

; Function Attrs: alwaysinline nounwind uwtable
define internal zeroext i1 @lean_is_scalar(ptr noundef %0) #3 {
  %2 = alloca ptr, align 8
  store ptr %0, ptr %2, align 8, !tbaa !15
  %3 = load ptr, ptr %2, align 8, !tbaa !15
  %4 = ptrtoint ptr %3 to i64
  %5 = and i64 %4, 1
  %6 = icmp eq i64 %5, 1
  ret i1 %6
}

; Function Attrs: inlinehint nounwind uwtable
define internal float @lean_ctor_get_float32(ptr noundef %0, i32 noundef %1) #0 {
  %3 = alloca ptr, align 8
  %4 = alloca i32, align 4
  store ptr %0, ptr %3, align 8, !tbaa !15
  store i32 %1, ptr %4, align 4, !tbaa !13
  %5 = load ptr, ptr %3, align 8, !tbaa !15
  %6 = call ptr @lean_ctor_obj_cptr(ptr noundef %5)
  %7 = load i32, ptr %4, align 4, !tbaa !13
  %8 = zext i32 %7 to i64
  %9 = getelementptr inbounds nuw i8, ptr %6, i64 %8
  %10 = load float, ptr %9, align 4, !tbaa !8
  ret float %10
}

; Function Attrs: inlinehint nounwind uwtable
define internal ptr @lean_box(i64 noundef %0) #0 {
  %2 = alloca i64, align 8
  store i64 %0, ptr %2, align 8, !tbaa !10
  %3 = load i64, ptr %2, align 8, !tbaa !10
  %4 = shl i64 %3, 1
  %5 = or i64 %4, 1
  %6 = inttoptr i64 %5 to ptr
  ret ptr %6
}

; Function Attrs: inlinehint nounwind uwtable
define internal zeroext i8 @lean_float32_to_int8(float noundef %0) #0 {
  %2 = alloca float, align 4
  %3 = alloca i8, align 1
  store float %0, ptr %2, align 4, !tbaa !8
  call void @llvm.lifetime.start.p0(i64 1, ptr %3) #7
  %4 = load float, ptr %2, align 4, !tbaa !8
  %5 = call zeroext i8 @lean_float32_isnan(float noundef %4)
  %6 = icmp ne i8 %5, 0
  br i1 %6, label %7, label %8

7:                                                ; preds = %1
  store i8 0, ptr %3, align 1, !tbaa !12
  br label %27

8:                                                ; preds = %1
  %9 = load float, ptr %2, align 4, !tbaa !8
  %10 = fpext float %9 to double
  %11 = fcmp olt double -1.290000e+02, %10
  br i1 %11, label %12, label %23

12:                                               ; preds = %8
  %13 = load float, ptr %2, align 4, !tbaa !8
  %14 = fpext float %13 to double
  %15 = fcmp olt double %14, 1.280000e+02
  br i1 %15, label %16, label %20

16:                                               ; preds = %12
  %17 = load float, ptr %2, align 4, !tbaa !8
  %18 = fptosi float %17 to i8
  %19 = sext i8 %18 to i32
  br label %21

20:                                               ; preds = %12
  br label %21

21:                                               ; preds = %20, %16
  %22 = phi i32 [ %19, %16 ], [ 127, %20 ]
  br label %24

23:                                               ; preds = %8
  br label %24

24:                                               ; preds = %23, %21
  %25 = phi i32 [ %22, %21 ], [ -128, %23 ]
  %26 = trunc i32 %25 to i8
  store i8 %26, ptr %3, align 1, !tbaa !12
  br label %27

27:                                               ; preds = %24, %7
  %28 = load i8, ptr %3, align 1, !tbaa !12
  call void @llvm.lifetime.end.p0(i64 1, ptr %3) #7
  ret i8 %28
}

; Function Attrs: alwaysinline nounwind uwtable
define internal void @lean_dec(ptr noundef %0) #3 {
  %2 = alloca ptr, align 8
  store ptr %0, ptr %2, align 8, !tbaa !15
  %3 = load ptr, ptr %2, align 8, !tbaa !15
  %4 = call zeroext i1 @lean_is_scalar(ptr noundef %3)
  br i1 %4, label %7, label %5

5:                                                ; preds = %1
  %6 = load ptr, ptr %2, align 8, !tbaa !15
  call void @lean_dec_ref(ptr noundef %6)
  br label %7

7:                                                ; preds = %5, %1
  ret void
}

; Function Attrs: inlinehint nounwind uwtable
define internal float @lean_unbox_float32(ptr noundef %0) #0 {
  %2 = alloca ptr, align 8
  store ptr %0, ptr %2, align 8, !tbaa !15
  %3 = load ptr, ptr %2, align 8, !tbaa !15
  %4 = call float @lean_ctor_get_float32(ptr noundef %3, i32 noundef 0)
  ret float %4
}

; Function Attrs: nounwind uwtable
define ptr @l_Float32_toInt8___boxed(ptr noundef %0) #1 {
  %2 = alloca ptr, align 8
  %3 = alloca float, align 4
  %4 = alloca i8, align 1
  %5 = alloca ptr, align 8
  store ptr %0, ptr %2, align 8, !tbaa !15
  br label %6

6:                                                ; preds = %1
  call void @llvm.lifetime.start.p0(i64 4, ptr %3) #7
  call void @llvm.lifetime.start.p0(i64 1, ptr %4) #7
  call void @llvm.lifetime.start.p0(i64 8, ptr %5) #7
  %7 = load ptr, ptr %2, align 8, !tbaa !15
  %8 = call float @lean_unbox_float32(ptr noundef %7)
  store float %8, ptr %3, align 4, !tbaa !8
  %9 = load ptr, ptr %2, align 8, !tbaa !15
  call void @lean_dec(ptr noundef %9)
  %10 = load float, ptr %3, align 4, !tbaa !8
  %11 = call zeroext i8 @lean_float32_to_int8(float noundef %10)
  store i8 %11, ptr %4, align 1, !tbaa !12
  %12 = load i8, ptr %4, align 1, !tbaa !12
  %13 = zext i8 %12 to i64
  %14 = call ptr @lean_box(i64 noundef %13)
  store ptr %14, ptr %5, align 8, !tbaa !15
  %15 = load ptr, ptr %5, align 8, !tbaa !15
  call void @llvm.lifetime.end.p0(i64 8, ptr %5) #7
  call void @llvm.lifetime.end.p0(i64 1, ptr %4) #7
  call void @llvm.lifetime.end.p0(i64 4, ptr %3) #7
  ret ptr %15
}