; Function Attrs: nounwind uwtable
define ptr @l_Float32_toInt8___boxed(ptr noundef %0) local_unnamed_addr #0 {
  %2 = getelementptr i8, ptr %0, i64 8
  %.val = load float, ptr %2, align 4, !tbaa !4
  %3 = ptrtoint ptr %0 to i64
  %4 = and i64 %3, 1
  %.not = icmp eq i64 %4, 0
  br i1 %.not, label %5, label %lean_dec.exit

5:                                                ; preds = %1
  %6 = load i32, ptr %0, align 4, !tbaa !8
  %7 = icmp sgt i32 %6, 1
  br i1 %7, label %8, label %10, !prof !11

8:                                                ; preds = %5
  %9 = add nsw i32 %6, -1
  store i32 %9, ptr %0, align 4, !tbaa !8
  br label %lean_dec.exit

10:                                               ; preds = %5
  %.not.i = icmp eq i32 %6, 0
  br i1 %.not.i, label %lean_dec.exit, label %11

11:                                               ; preds = %10
  tail call void @lean_dec_ref_cold(ptr noundef nonnull %0) #3
  br label %lean_dec.exit

lean_dec.exit:                                    ; preds = %11, %10, %8, %1
  %12 = tail call zeroext i8 @lean_float32_isnan(float noundef %.val) #3
  %.not.i4 = icmp eq i8 %12, 0
  br i1 %.not.i4, label %13, label %lean_float32_to_int8.exit

13:                                               ; preds = %lean_dec.exit
  %14 = fcmp ogt float %.val, -1.290000e+02
  %15 = fcmp olt float %.val, 1.280000e+02
  %16 = fptosi float %.val to i8
  %17 = zext i8 %16 to i64
  %18 = shl nuw nsw i64 %17, 1
  %19 = or disjoint i64 %18, 1
  %20 = select i1 %15, i64 %19, i64 255
  %21 = select i1 %14, i64 %20, i64 257
  br label %lean_float32_to_int8.exit

lean_float32_to_int8.exit:                        ; preds = %lean_dec.exit, %13
  %.0.i = phi i64 [ %21, %13 ], [ 1, %lean_dec.exit ]
  %22 = inttoptr i64 %.0.i to ptr
  ret ptr %22
}